; Function Attrs: nounwind uwtable
define internal ptr @function_set_closure(ptr readnone captures(none) %0, ptr noundef %1) #0 {
  %3 = alloca ptr, align 8
  %4 = alloca ptr, align 8
  call void @llvm.lifetime.start.p0(i64 8, ptr nonnull %3) #3
  store ptr null, ptr %3, align 8, !tbaa !6
  call void @llvm.lifetime.start.p0(i64 8, ptr nonnull %4) #3
  store ptr null, ptr %4, align 8, !tbaa !6
  %5 = call i32 (ptr, ptr, ...) @PyArg_ParseTuple(ptr noundef %1, ptr noundef nonnull @.str.10, ptr noundef nonnull %3, ptr noundef nonnull %4) #3
  %.not = icmp eq i32 %5, 0
  br i1 %.not, label %11, label %6

6:                                                ; preds = %2
  %7 = load ptr, ptr %3, align 8, !tbaa !6
  %8 = load ptr, ptr %4, align 8, !tbaa !6
  %9 = call i32 @PyFunction_SetClosure(ptr noundef %7, ptr noundef %8) #3
  %10 = icmp eq i32 %9, -1
  %._Py_NoneStruct = select i1 %10, ptr null, ptr @_Py_NoneStruct
  br label %11

11:                                               ; preds = %2, %6
  %.0 = phi ptr [ %._Py_NoneStruct, %6 ], [ null, %2 ]
  call void @llvm.lifetime.end.p0(i64 8, ptr nonnull %4) #3
  call void @llvm.lifetime.end.p0(i64 8, ptr nonnull %3) #3
  ret ptr %.0
}